target datalayout = "e-m:e-p270:32:32-p271:32:32-p272:64:64-i64:64-i128:128-f80:128-n8:16:32:64-S128"
target triple = "x86_64-pc-linux-gnu"

%struct.ScanKeywordList = type { ptr, ptr, ptr, i32, i32 }
%struct.TokenAuxData = type { %union.YYSTYPE, i32, i32 }
%union.YYSTYPE = type { %struct.PLwdatum }
%struct.PLwdatum = type { ptr, ptr, i8, ptr }
%struct.yyguts_t = type { ptr }
%struct.plpgsql_yy_extra_type = type { %struct.core_yy_extra_type, ptr, i32, i32, i32, [4 x i32], [4 x %struct.TokenAuxData], ptr, ptr, i32 }
%struct.core_yy_extra_type = type { ptr, i64, ptr, ptr, i32, i8, i8, ptr, i32, i32, i32, i32, ptr, i32, i32, i8, i8 }

@plpgsql_IdentifierLookup = hidden global i32 0, align 4
@ReservedPLKeywords = internal constant %struct.ScanKeywordList { ptr @ReservedPLKeywords_kw_string, ptr @ReservedPLKeywords_kw_offsets, ptr @ReservedPLKeywords_hash_func, i32 24, i32 7 }, align 8
@ReservedPLKeywordTokens = internal constant [24 x i16] [i16 282, i16 287, i16 288, i16 290, i16 305, i16 311, i16 313, i16 317, i16 321, i16 322, i16 324, i16 327, i16 329, i16 332, i16 336, i16 343, i16 345, i16 348, i16 373, i16 376, i16 377, i16 381, i16 384, i16 385], align 16

; Function Attrs: nounwind uwtable
define internal void @location_lineno_init(ptr noundef %0) #0 {
  %2 = alloca ptr, align 8
  store ptr %0, ptr %2, align 8
  %3 = load ptr, ptr %2, align 8
  %4 = getelementptr inbounds nuw %struct.yyguts_t, ptr %3, i32 0, i32 0
  %5 = load ptr, ptr %4, align 8
  %6 = getelementptr inbounds nuw %struct.plpgsql_yy_extra_type, ptr %5, i32 0, i32 1
  %7 = load ptr, ptr %6, align 8
  %8 = load ptr, ptr %2, align 8
  %9 = getelementptr inbounds nuw %struct.yyguts_t, ptr %8, i32 0, i32 0
  %10 = load ptr, ptr %9, align 8
  %11 = getelementptr inbounds nuw %struct.plpgsql_yy_extra_type, ptr %10, i32 0, i32 7
  store ptr %7, ptr %11, align 8
  %12 = load ptr, ptr %2, align 8
  %13 = getelementptr inbounds nuw %struct.yyguts_t, ptr %12, i32 0, i32 0
  %14 = load ptr, ptr %13, align 8
  %15 = getelementptr inbounds nuw %struct.plpgsql_yy_extra_type, ptr %14, i32 0, i32 9
  store i32 1, ptr %15, align 8
  %16 = load ptr, ptr %2, align 8
  %17 = getelementptr inbounds nuw %struct.yyguts_t, ptr %16, i32 0, i32 0
  %18 = load ptr, ptr %17, align 8
  %19 = getelementptr inbounds nuw %struct.plpgsql_yy_extra_type, ptr %18, i32 0, i32 7
  %20 = load ptr, ptr %19, align 8
  %21 = call ptr @strchr(ptr noundef %20, i32 noundef 10) #9
  %22 = load ptr, ptr %2, align 8
  %23 = getelementptr inbounds nuw %struct.yyguts_t, ptr %22, i32 0, i32 0
  %24 = load ptr, ptr %23, align 8
  %25 = getelementptr inbounds nuw %struct.plpgsql_yy_extra_type, ptr %24, i32 0, i32 8
  store ptr %21, ptr %25, align 8
  ret void
}

; Function Attrs: nounwind uwtable
define hidden ptr @plpgsql_scanner_init(ptr noundef %0) #0 {
  %2 = alloca ptr, align 8
  %3 = alloca ptr, align 8
  %4 = alloca ptr, align 8
  store ptr %0, ptr %2, align 8
  call void @llvm.lifetime.start.p0(i64 8, ptr %3) #8
  call void @llvm.lifetime.start.p0(i64 8, ptr %4) #8
  %5 = call ptr @palloc0(i64 noundef 312)
  store ptr %5, ptr %4, align 8
  %6 = load ptr, ptr %2, align 8
  %7 = load ptr, ptr %4, align 8
  %8 = call ptr @scanner_init(ptr noundef %6, ptr noundef %7, ptr noundef @ReservedPLKeywords, ptr noundef @ReservedPLKeywordTokens)
  store ptr %8, ptr %3, align 8
  %9 = load ptr, ptr %2, align 8
  %10 = load ptr, ptr %4, align 8
  %11 = getelementptr inbounds nuw %struct.plpgsql_yy_extra_type, ptr %10, i32 0, i32 1
  store ptr %9, ptr %11, align 8
  store i32 0, ptr @plpgsql_IdentifierLookup, align 4
  %12 = load ptr, ptr %4, align 8
  %13 = getelementptr inbounds nuw %struct.plpgsql_yy_extra_type, ptr %12, i32 0, i32 3
  store i32 0, ptr %13, align 4
  %14 = load ptr, ptr %4, align 8
  %15 = getelementptr inbounds nuw %struct.plpgsql_yy_extra_type, ptr %14, i32 0, i32 4
  store i32 0, ptr %15, align 8
  %16 = load ptr, ptr %3, align 8
  call void @location_lineno_init(ptr noundef %16)
  %17 = load ptr, ptr %3, align 8
  call void @llvm.lifetime.end.p0(i64 8, ptr %4) #8
  call void @llvm.lifetime.end.p0(i64 8, ptr %3) #8
  ret ptr %17
}