; Function Attrs: nounwind uwtable
define hidden noundef ptr @plpgsql_scanner_init(ptr noundef %0) local_unnamed_addr #0 {
  %2 = tail call ptr @palloc0(i64 noundef 312) #12
  %3 = tail call ptr @scanner_init(ptr noundef %0, ptr noundef %2, ptr noundef nonnull @ReservedPLKeywords, ptr noundef nonnull @ReservedPLKeywordTokens) #12
  %4 = getelementptr inbounds nuw i8, ptr %2, i64 88
  store ptr %0, ptr %4, align 8
  store i32 0, ptr @plpgsql_IdentifierLookup, align 4
  %5 = getelementptr inbounds nuw i8, ptr %2, i64 100
  store i32 0, ptr %5, align 4
  %6 = getelementptr inbounds nuw i8, ptr %2, i64 104
  store i32 0, ptr %6, align 8
  %7 = load ptr, ptr %3, align 8
  %8 = getelementptr inbounds nuw i8, ptr %7, i64 88
  %9 = load ptr, ptr %8, align 8
  %10 = getelementptr inbounds nuw i8, ptr %7, i64 288
  store ptr %9, ptr %10, align 8
  %11 = load ptr, ptr %3, align 8
  %12 = getelementptr inbounds nuw i8, ptr %11, i64 304
  store i32 1, ptr %12, align 8
  %13 = load ptr, ptr %3, align 8
  %14 = getelementptr inbounds nuw i8, ptr %13, i64 288
  %15 = load ptr, ptr %14, align 8
  %16 = tail call ptr @strchr(ptr noundef nonnull dereferenceable(1) %15, i32 noundef 10) #14
  %17 = getelementptr inbounds nuw i8, ptr %13, i64 296
  store ptr %16, ptr %17, align 8
  ret ptr %3
}